target datalayout = "e-m:e-p270:32:32-p271:32:32-p272:64:64-i64:64-i128:128-f80:128-n8:16:32:64-S128"
target triple = "x86_64-pc-linux-gnu"

%struct.stbi_io_callbacks = type { ptr, ptr, ptr }
%struct.stbi__context = type { i32, i32, i32, i32, %struct.stbi_io_callbacks, ptr, i32, i32, [128 x i8], i32, ptr, ptr, ptr, ptr }
%struct.stbi__png = type { ptr, ptr, ptr, ptr, i32 }

; Function Attrs: mustprogress nounwind uwtable
define internal noundef i32 @_ZL26stbi__compute_transparencyP9stbi__pngPhi(ptr noundef %0, ptr noundef %1, i32 noundef %2) #0 {
  %4 = alloca ptr, align 8
  %5 = alloca ptr, align 8
  %6 = alloca i32, align 4
  %7 = alloca ptr, align 8
  %8 = alloca i32, align 4
  %9 = alloca i32, align 4
  %10 = alloca ptr, align 8
  store ptr %0, ptr %4, align 8, !tbaa !10
  store ptr %1, ptr %5, align 8, !tbaa !5
  store i32 %2, ptr %6, align 4, !tbaa !11
  call void @llvm.lifetime.start.p0(i64 8, ptr %7) #22
  %11 = load ptr, ptr %4, align 8, !tbaa !10
  %12 = getelementptr inbounds nuw %struct.stbi__png, ptr %11, i32 0, i32 0
  %13 = load ptr, ptr %12, align 8, !tbaa !44
  store ptr %13, ptr %7, align 8, !tbaa !10
  call void @llvm.lifetime.start.p0(i64 4, ptr %8) #22
  call void @llvm.lifetime.start.p0(i64 4, ptr %9) #22
  %14 = load ptr, ptr %7, align 8, !tbaa !10
  %15 = getelementptr inbounds nuw %struct.stbi__context, ptr %14, i32 0, i32 0
  %16 = load i32, ptr %15, align 8, !tbaa !49
  %17 = load ptr, ptr %7, align 8, !tbaa !10
  %18 = getelementptr inbounds nuw %struct.stbi__context, ptr %17, i32 0, i32 1
  %19 = load i32, ptr %18, align 4, !tbaa !48
  %20 = mul i32 %16, %19
  store i32 %20, ptr %9, align 4, !tbaa !11
  call void @llvm.lifetime.start.p0(i64 8, ptr %10) #22
  %21 = load ptr, ptr %4, align 8, !tbaa !10
  %22 = getelementptr inbounds nuw %struct.stbi__png, ptr %21, i32 0, i32 3
  %23 = load ptr, ptr %22, align 8, !tbaa !74
  store ptr %23, ptr %10, align 8, !tbaa !5
  %24 = load i32, ptr %6, align 4, !tbaa !11
  %25 = icmp eq i32 %24, 2
  br i1 %25, label %26, label %51

26:                                               ; preds = %3
  store i32 0, ptr %8, align 4, !tbaa !11
  br label %27

27:                                               ; preds = %47, %26
  %28 = load i32, ptr %8, align 4, !tbaa !11
  %29 = load i32, ptr %9, align 4, !tbaa !11
  %30 = icmp ult i32 %28, %29
  br i1 %30, label %31, label %50

31:                                               ; preds = %27
  %32 = load ptr, ptr %10, align 8, !tbaa !5
  %33 = getelementptr inbounds i8, ptr %32, i64 0
  %34 = load i8, ptr %33, align 1, !tbaa !31
  %35 = zext i8 %34 to i32
  %36 = load ptr, ptr %5, align 8, !tbaa !5
  %37 = getelementptr inbounds i8, ptr %36, i64 0
  %38 = load i8, ptr %37, align 1, !tbaa !31
  %39 = zext i8 %38 to i32
  %40 = icmp eq i32 %35, %39
  %41 = select i1 %40, i32 0, i32 255
  %42 = trunc i32 %41 to i8
  %43 = load ptr, ptr %10, align 8, !tbaa !5
  %44 = getelementptr inbounds i8, ptr %43, i64 1
  store i8 %42, ptr %44, align 1, !tbaa !31
  %45 = load ptr, ptr %10, align 8, !tbaa !5
  %46 = getelementptr inbounds i8, ptr %45, i64 2
  store ptr %46, ptr %10, align 8, !tbaa !5
  br label %47

47:                                               ; preds = %31
  %48 = load i32, ptr %8, align 4, !tbaa !11
  %49 = add i32 %48, 1
  store i32 %49, ptr %8, align 4, !tbaa !11
  br label %27, !llvm.loop !125

50:                                               ; preds = %27
  br label %96

51:                                               ; preds = %3
  store i32 0, ptr %8, align 4, !tbaa !11
  br label %52

52:                                               ; preds = %92, %51
  %53 = load i32, ptr %8, align 4, !tbaa !11
  %54 = load i32, ptr %9, align 4, !tbaa !11
  %55 = icmp ult i32 %53, %54
  br i1 %55, label %56, label %95

56:                                               ; preds = %52
  %57 = load ptr, ptr %10, align 8, !tbaa !5
  %58 = getelementptr inbounds i8, ptr %57, i64 0
  %59 = load i8, ptr %58, align 1, !tbaa !31
  %60 = zext i8 %59 to i32
  %61 = load ptr, ptr %5, align 8, !tbaa !5
  %62 = getelementptr inbounds i8, ptr %61, i64 0
  %63 = load i8, ptr %62, align 1, !tbaa !31
  %64 = zext i8 %63 to i32
  %65 = icmp eq i32 %60, %64
  br i1 %65, label %66, label %89

66:                                               ; preds = %56
  %67 = load ptr, ptr %10, align 8, !tbaa !5
  %68 = getelementptr inbounds i8, ptr %67, i64 1
  %69 = load i8, ptr %68, align 1, !tbaa !31
  %70 = zext i8 %69 to i32
  %71 = load ptr, ptr %5, align 8, !tbaa !5
  %72 = getelementptr inbounds i8, ptr %71, i64 1
  %73 = load i8, ptr %72, align 1, !tbaa !31
  %74 = zext i8 %73 to i32
  %75 = icmp eq i32 %70, %74
  br i1 %75, label %76, label %89

76:                                               ; preds = %66
  %77 = load ptr, ptr %10, align 8, !tbaa !5
  %78 = getelementptr inbounds i8, ptr %77, i64 2
  %79 = load i8, ptr %78, align 1, !tbaa !31
  %80 = zext i8 %79 to i32
  %81 = load ptr, ptr %5, align 8, !tbaa !5
  %82 = getelementptr inbounds i8, ptr %81, i64 2
  %83 = load i8, ptr %82, align 1, !tbaa !31
  %84 = zext i8 %83 to i32
  %85 = icmp eq i32 %80, %84
  br i1 %85, label %86, label %89

86:                                               ; preds = %76
  %87 = load ptr, ptr %10, align 8, !tbaa !5
  %88 = getelementptr inbounds i8, ptr %87, i64 3
  store i8 0, ptr %88, align 1, !tbaa !31
  br label %89

89:                                               ; preds = %86, %76, %66, %56
  %90 = load ptr, ptr %10, align 8, !tbaa !5
  %91 = getelementptr inbounds i8, ptr %90, i64 4
  store ptr %91, ptr %10, align 8, !tbaa !5
  br label %92

92:                                               ; preds = %89
  %93 = load i32, ptr %8, align 4, !tbaa !11
  %94 = add i32 %93, 1
  store i32 %94, ptr %8, align 4, !tbaa !11
  br label %52, !llvm.loop !126

95:                                               ; preds = %52
  br label %96

96:                                               ; preds = %95, %50
  call void @llvm.lifetime.end.p0(i64 8, ptr %10) #22
  call void @llvm.lifetime.end.p0(i64 4, ptr %9) #22
  call void @llvm.lifetime.end.p0(i64 4, ptr %8) #22
  call void @llvm.lifetime.end.p0(i64 8, ptr %7) #22
  ret i32 1
}