; Function Attrs: mustprogress nofree norecurse nosync nounwind memory(argmem: readwrite) uwtable
define internal fastcc void @_ZL26stbi__compute_transparencyP9stbi__pngPhi(i32 %.0.val.0.val, i32 %.0.val.4.val, ptr captures(none) %.24.val, ptr noundef nonnull readonly captures(none) %0, i32 noundef %1) unnamed_addr #14 {
  %3 = mul i32 %.0.val.4.val, %.0.val.0.val
  %4 = icmp eq i32 %1, 2
  %.not8 = icmp eq i32 %3, 0
  br i1 %4, label %.preheader, label %.preheader1

.preheader1:                                      ; preds = %2
  br i1 %.not8, label %.loopexit, label %.lr.ph

.lr.ph:                                           ; preds = %.preheader1
  %5 = getelementptr inbounds nuw i8, ptr %0, i64 1
  %6 = getelementptr inbounds nuw i8, ptr %0, i64 2
  br label %14

.preheader:                                       ; preds = %2
  br i1 %.not8, label %.loopexit, label %.lr.ph7

.lr.ph7:                                          ; preds = %.preheader, %.lr.ph7
  %.06 = phi ptr [ %12, %.lr.ph7 ], [ %.24.val, %.preheader ]
  %.0225 = phi i32 [ %13, %.lr.ph7 ], [ 0, %.preheader ]
  %7 = load i8, ptr %.06, align 1, !tbaa !23
  %8 = load i8, ptr %0, align 1, !tbaa !23
  %9 = icmp ne i8 %7, %8
  %10 = sext i1 %9 to i8
  %11 = getelementptr inbounds nuw i8, ptr %.06, i64 1
  store i8 %10, ptr %11, align 1, !tbaa !23
  %12 = getelementptr inbounds nuw i8, ptr %.06, i64 2
  %13 = add nuw i32 %.0225, 1
  %exitcond10.not = icmp eq i32 %13, %3
  br i1 %exitcond10.not, label %.loopexit, label %.lr.ph7, !llvm.loop !209

14:                                               ; preds = %.lr.ph, %30
  %.14 = phi ptr [ %.24.val, %.lr.ph ], [ %31, %30 ]
  %.1233 = phi i32 [ 0, %.lr.ph ], [ %32, %30 ]
  %15 = load i8, ptr %.14, align 1, !tbaa !23
  %16 = load i8, ptr %0, align 1, !tbaa !23
  %17 = icmp eq i8 %15, %16
  br i1 %17, label %18, label %30

18:                                               ; preds = %14
  %19 = getelementptr inbounds nuw i8, ptr %.14, i64 1
  %20 = load i8, ptr %19, align 1, !tbaa !23
  %21 = load i8, ptr %5, align 1, !tbaa !23
  %22 = icmp eq i8 %20, %21
  br i1 %22, label %23, label %30

23:                                               ; preds = %18
  %24 = getelementptr inbounds nuw i8, ptr %.14, i64 2
  %25 = load i8, ptr %24, align 1, !tbaa !23
  %26 = load i8, ptr %6, align 1, !tbaa !23
  %27 = icmp eq i8 %25, %26
  br i1 %27, label %28, label %30

28:                                               ; preds = %23
  %29 = getelementptr inbounds nuw i8, ptr %.14, i64 3
  store i8 0, ptr %29, align 1, !tbaa !23
  br label %30

30:                                               ; preds = %28, %23, %18, %14
  %31 = getelementptr inbounds nuw i8, ptr %.14, i64 4
  %32 = add nuw i32 %.1233, 1
  %exitcond.not = icmp eq i32 %32, %3
  br i1 %exitcond.not, label %.loopexit, label %14, !llvm.loop !210

.loopexit:                                        ; preds = %30, %.lr.ph7, %.preheader1, %.preheader
  ret void
}